target datalayout = "e-m:e-p270:32:32-p271:32:32-p272:64:64-i64:64-i128:128-f80:128-n8:16:32:64-S128"
target triple = "x86_64-pc-linux-gnu"

%struct.RelationData = type { %struct.RelFileLocator, ptr, i32, i32, i8, i8, i8, i8, i8, i32, i32, i32, i32, ptr, ptr, i32, %struct.LockInfoData, ptr, ptr, ptr, ptr, ptr, i8, ptr, ptr, ptr, ptr, ptr, ptr, i32, ptr, i8, ptr, ptr, i32, i8, i32, ptr, i8, ptr, ptr, ptr, ptr, ptr, ptr, ptr, i32, ptr, ptr, ptr, ptr, ptr, ptr, ptr, ptr, ptr, ptr, ptr, ptr, ptr, ptr, ptr, ptr, ptr, ptr, ptr, i32, i8, ptr }
%struct.RelFileLocator = type { i32, i32, i32 }
%struct.LockInfoData = type { %struct.LockRelId }
%struct.LockRelId = type { i32, i32 }
%struct.LOCKTAG = type { i32, i32, i32, i16, i8, i8 }

; Function Attrs: nounwind uwtable
define dso_local zeroext i1 @CheckRelationLockedByMe(ptr noundef %0, i32 noundef %1, i1 noundef zeroext %2) #0 {
  %4 = alloca ptr, align 8
  %5 = alloca i32, align 4
  %6 = alloca i8, align 1
  %7 = alloca %struct.LOCKTAG, align 4
  store ptr %0, ptr %4, align 8
  store i32 %1, ptr %5, align 4
  %8 = zext i1 %2 to i8
  store i8 %8, ptr %6, align 1
  call void @llvm.lifetime.start.p0(i64 16, ptr %7) #6
  %9 = load ptr, ptr %4, align 8
  %10 = getelementptr inbounds nuw %struct.RelationData, ptr %9, i32 0, i32 16
  %11 = getelementptr inbounds nuw %struct.LockInfoData, ptr %10, i32 0, i32 0
  %12 = getelementptr inbounds nuw %struct.LockRelId, ptr %11, i32 0, i32 1
  %13 = load i32, ptr %12, align 4
  %14 = getelementptr inbounds nuw %struct.LOCKTAG, ptr %7, i32 0, i32 0
  store i32 %13, ptr %14, align 4
  %15 = load ptr, ptr %4, align 8
  %16 = getelementptr inbounds nuw %struct.RelationData, ptr %15, i32 0, i32 16
  %17 = getelementptr inbounds nuw %struct.LockInfoData, ptr %16, i32 0, i32 0
  %18 = getelementptr inbounds nuw %struct.LockRelId, ptr %17, i32 0, i32 0
  %19 = load i32, ptr %18, align 4
  %20 = getelementptr inbounds nuw %struct.LOCKTAG, ptr %7, i32 0, i32 1
  store i32 %19, ptr %20, align 4
  %21 = getelementptr inbounds nuw %struct.LOCKTAG, ptr %7, i32 0, i32 2
  store i32 0, ptr %21, align 4
  %22 = getelementptr inbounds nuw %struct.LOCKTAG, ptr %7, i32 0, i32 3
  store i16 0, ptr %22, align 4
  %23 = getelementptr inbounds nuw %struct.LOCKTAG, ptr %7, i32 0, i32 4
  store i8 0, ptr %23, align 2
  %24 = getelementptr inbounds nuw %struct.LOCKTAG, ptr %7, i32 0, i32 5
  store i8 1, ptr %24, align 1
  %25 = load i32, ptr %5, align 4
  %26 = load i8, ptr %6, align 1, !range !4, !noundef !5
  %27 = trunc i8 %26 to i1
  %28 = call zeroext i1 @LockHeldByMe(ptr noundef %7, i32 noundef %25, i1 noundef zeroext %27)
  call void @llvm.lifetime.end.p0(i64 16, ptr %7) #6
  ret i1 %28
}