; Function Attrs: nounwind uwtable
define dso_local zeroext i1 @CheckRelationLockedByMe(ptr noundef readonly captures(none) %0, i32 noundef %1, i1 noundef zeroext %2) local_unnamed_addr #1 {
  %4 = alloca %struct.LOCKTAG, align 4
  call void @llvm.lifetime.start.p0(i64 16, ptr nonnull %4) #8
  %5 = getelementptr inbounds nuw i8, ptr %0, i64 76
  %6 = getelementptr inbounds nuw i8, ptr %0, i64 80
  %7 = load i32, ptr %6, align 4
  store i32 %7, ptr %4, align 4
  %8 = load i32, ptr %5, align 4
  %9 = getelementptr inbounds nuw i8, ptr %4, i64 4
  store i32 %8, ptr %9, align 4
  %10 = getelementptr inbounds nuw i8, ptr %4, i64 8
  store i32 0, ptr %10, align 4
  %11 = getelementptr inbounds nuw i8, ptr %4, i64 12
  store i16 0, ptr %11, align 4
  %12 = getelementptr inbounds nuw i8, ptr %4, i64 14
  store i8 0, ptr %12, align 2
  %13 = getelementptr inbounds nuw i8, ptr %4, i64 15
  store i8 1, ptr %13, align 1
  %14 = call zeroext i1 @LockHeldByMe(ptr noundef nonnull %4, i32 noundef %1, i1 noundef zeroext %2) #8
  call void @llvm.lifetime.end.p0(i64 16, ptr nonnull %4) #8
  ret i1 %14
}